Certificate:
    Data:
        Version: 3 (0x2)
        Serial Number: 4096 (0x1000)
        Signature Algorithm: ecdsa-with-SHA256
        Issuer: CN=HQC_ROOT_CA, ST=Krakow, C=PL
        Validity
            Not Before: Jan 10 13:58:08 2025 GMT
            Not After : Jan  5 13:58:08 2045 GMT
        Subject: C=PL, ST=Krakow, CN=HQC_SERVER
        Subject Public Key Info:
            Public Key Algorithm: id-ecPublicKey
                Public-Key: (256 bit)
                pub:
                    04:7c:6a:4f:0f:c3:4c:78:6a:bd:1c:51:ad:ec:28:
                    2a:ac:a3:76:95:2f:70:75:0b:3e:db:ff:32:d4:60:
                    62:4c:cd:79:da:51:7f:c7:ca:2d:bd:a9:06:98:7f:
                    9d:6e:a2:56:4a:7e:6b:dd:99:af:38:67:bb:03:fc:
                    c6:07:f8:02:cf
                ASN1 OID: prime256v1
                NIST CURVE: P-256
        X509v3 extensions:
            X509v3 Subject Key Identifier: 
                82:67:E3:C6:5B:EC:C6:B2:A4:5F:AF:1F:6B:01:73:6A:BF:ED:98:8E
            X509v3 Authority Key Identifier: 
                keyid:E3:D8:E2:EF:6C:50:EF:CB:64:9E:46:BB:6B:53:AA:7A:37:5D:D1:C7

            X509v3 Basic Constraints: critical
                CA:TRUE, pathlen:0
            X509v3 Key Usage: critical
                Digital Signature, Certificate Sign, CRL Sign
    Signature Algorithm: ecdsa-with-SHA256
         30:44:02:20:63:b0:e0:ca:c6:45:19:61:46:da:fa:ce:86:e7:
         15:19:70:44:d6:d4:bb:b6:30:7a:da:a1:15:a8:16:0a:ee:ec:
         02:20:05:32:a5:a2:1b:83:47:35:69:21:12:3b:b6:36:52:e6:
         6f:ef:58:7a:c2:ce:69:63:37:c6:d2:7d:34:a0:b0:03
-----BEGIN CERTIFICATE-----
MIIBvDCCAWOgAwIBAgICEAAwCgYIKoZIzj0EAwIwNDEUMBIGA1UEAwwLSFFDX1JP
T1RfQ0ExDzANBgNVBAgMBktyYWtvdzELMAkGA1UEBhMCUEwwHhcNMjUwMTEwMTM1
ODA4WhcNNDUwMTA1MTM1ODA4WjAzMQswCQYDVQQGEwJQTDEPMA0GA1UECAwGS3Jh
a293MRMwEQYDVQQDDApIUUNfU0VSVkVSMFkwEwYHKoZIzj0CAQYIKoZIzj0DAQcD
QgAEfGpPD8NMeGq9HFGt7CgqrKN2lS9wdQs+2/8y1GBiTM152lF/x8otvakGmH+d
bqJWSn5r3ZmvOGe7A/zGB/gCz6NmMGQwHQYDVR0OBBYEFIJn48Zb7MaypF+vH2sB
c2q/7ZiOMB8GA1UdIwQYMBaAFOPY4u9sUO/LZJ5Gu2tTqno3XdHHMBIGA1UdEwEB
/wQIMAYBAf8CAQAwDgYDVR0PAQH/BAQDAgGGMAoGCCqGSM49BAMCA0cAMEQCIGOw
4MrGRRlhRtr6zobnFRlwRNbUu7YwetqhFagWCu7sAiAFMqWiG4NHNWkhEju2NlLm
b+9YesLOaWM3xtJ9NKCwAw==
-----END CERTIFICATE-----
